target datalayout = "e-m:e-p270:32:32-p271:32:32-p272:64:64-i64:64-i128:128-f80:128-n8:16:32:64-S128"
target triple = "x86_64-pc-linux-gnu"

%struct.AVFilterContext = type { ptr, ptr, ptr, ptr, ptr, i32, ptr, ptr, i32, ptr, ptr, i32, i32, ptr, ptr, ptr, ptr, i32, ptr, i32, i32 }
%struct.AVFilter = type { ptr, ptr, ptr, ptr, ptr, i32 }
%struct.ShowWavesContext = type { ptr, i32, i32, %struct.AVRational, ptr, i32, ptr, ptr, i32, i32, ptr, %struct.AVRational, %struct.AVRational, %struct.AVRational, i32, i32, i32, i32, i32, i32, ptr, ptr, ptr, i32, ptr, ptr, i64, ptr }
%struct.AVRational = type { i32, i32 }

@.str.2 = private unnamed_addr constant [13 x i8] c"showwavespic\00", align 1

; Function Attrs: cold nounwind optsize uwtable
define internal i32 @init(ptr noundef %0) #0 {
  %2 = alloca ptr, align 8
  %3 = alloca ptr, align 8
  store ptr %0, ptr %2, align 8, !tbaa !4
  call void @llvm.lifetime.start.p0(i64 8, ptr %3) #13
  %4 = load ptr, ptr %2, align 8, !tbaa !4
  %5 = getelementptr inbounds nuw %struct.AVFilterContext, ptr %4, i32 0, i32 9
  %6 = load ptr, ptr %5, align 8, !tbaa !9
  store ptr %6, ptr %3, align 8, !tbaa !22
  %7 = load ptr, ptr %2, align 8, !tbaa !4
  %8 = getelementptr inbounds nuw %struct.AVFilterContext, ptr %7, i32 0, i32 1
  %9 = load ptr, ptr %8, align 8, !tbaa !24
  %10 = getelementptr inbounds nuw %struct.AVFilter, ptr %9, i32 0, i32 0
  %11 = load ptr, ptr %10, align 8, !tbaa !25
  %12 = call i32 @strcmp(ptr noundef %11, ptr noundef @.str.2) #14
  %13 = icmp ne i32 %12, 0
  br i1 %13, label %19, label %14

14:                                               ; preds = %1
  %15 = load ptr, ptr %3, align 8, !tbaa !22
  %16 = getelementptr inbounds nuw %struct.ShowWavesContext, ptr %15, i32 0, i32 23
  store i32 1, ptr %16, align 8, !tbaa !27
  %17 = load ptr, ptr %3, align 8, !tbaa !22
  %18 = getelementptr inbounds nuw %struct.ShowWavesContext, ptr %17, i32 0, i32 15
  store i32 3, ptr %18, align 4, !tbaa !35
  br label %19

19:                                               ; preds = %14, %1
  call void @llvm.lifetime.end.p0(i64 8, ptr %3) #13
  ret i32 0
}